target datalayout = "e-m:e-p270:32:32-p271:32:32-p272:64:64-i64:64-i128:128-f80:128-n8:16:32:64-S128"
target triple = "x86_64-unknown-linux-gnu"

%struct.siginfo_t = type { i32, i32, i32, i32, %union.anon.13 }
%union.anon.13 = type { %struct.anon.17, [80 x i8] }
%struct.anon.17 = type { i32, i32, i32, i64, i64 }
%struct.anon.18 = type { ptr, i16, %union.anon.19 }
%union.anon.19 = type { %struct.anon.20 }
%struct.anon.20 = type { ptr, ptr }

@.str.12 = private unnamed_addr constant [5 x i8] c"SEGV\00", align 1
@.str.13 = private unnamed_addr constant [7 x i8] c"MAPERR\00", align 1
@.str.14 = private unnamed_addr constant [7 x i8] c"ACCERR\00", align 1
@.str.15 = private unnamed_addr constant [4 x i8] c"BUS\00", align 1
@.str.16 = private unnamed_addr constant [7 x i8] c"ADRALN\00", align 1
@.str.17 = private unnamed_addr constant [7 x i8] c"ADRERR\00", align 1
@.str.18 = private unnamed_addr constant [4 x i8] c"ILL\00", align 1
@.str.19 = private unnamed_addr constant [7 x i8] c"ILLOPC\00", align 1
@.str.20 = private unnamed_addr constant [7 x i8] c"ILLOPN\00", align 1
@.str.21 = private unnamed_addr constant [7 x i8] c"ILLADR\00", align 1
@.str.22 = private unnamed_addr constant [7 x i8] c"PRVOPC\00", align 1
@.str.23 = private unnamed_addr constant [7 x i8] c"PRVREG\00", align 1
@.str.24 = private unnamed_addr constant [7 x i8] c"COPROC\00", align 1
@.str.25 = private unnamed_addr constant [4 x i8] c"FPE\00", align 1
@.str.26 = private unnamed_addr constant [7 x i8] c"INTDIV\00", align 1
@.str.27 = private unnamed_addr constant [7 x i8] c"INTOVF\00", align 1
@.str.28 = private unnamed_addr constant [5 x i8] c"TRAP\00", align 1
@.str.29 = private unnamed_addr constant [3 x i8] c"%d\00", align 1
@.str.30 = private unnamed_addr constant [39 x i8] c"QEMU internal SIG%s {code=%s, addr=%p}\00", align 1

; Function Attrs: noreturn nounwind sspstrong uwtable
define internal void @die_from_signal(ptr noundef %info) #6 {
entry:
  %info.addr = alloca ptr, align 8
  %sigbuf = alloca [4 x i8], align 1
  %codebuf = alloca [12 x i8], align 1
  %sig = alloca ptr, align 8
  %code = alloca ptr, align 8
  store ptr %info, ptr %info.addr, align 8
  store ptr null, ptr %code, align 8
  %0 = load ptr, ptr %info.addr, align 8
  %si_signo = getelementptr inbounds %struct.siginfo_t, ptr %0, i32 0, i32 0
  %1 = load i32, ptr %si_signo, align 8
  switch i32 %1, label %sw.default [
    i32 11, label %sw.bb
    i32 7, label %sw.bb3
    i32 4, label %sw.bb8
    i32 8, label %sw.bb17
    i32 5, label %sw.bb22
  ]

sw.bb:                                            ; preds = %entry
  store ptr @.str.12, ptr %sig, align 8
  %2 = load ptr, ptr %info.addr, align 8
  %si_code = getelementptr inbounds %struct.siginfo_t, ptr %2, i32 0, i32 2
  %3 = load i32, ptr %si_code, align 8
  switch i32 %3, label %sw.epilog [
    i32 1, label %sw.bb1
    i32 2, label %sw.bb2
  ]

sw.bb1:                                           ; preds = %sw.bb
  store ptr @.str.13, ptr %code, align 8
  br label %sw.epilog

sw.bb2:                                           ; preds = %sw.bb
  store ptr @.str.14, ptr %code, align 8
  br label %sw.epilog

sw.epilog:                                        ; preds = %sw.bb2, %sw.bb1, %sw.bb
  br label %sw.epilog25

sw.bb3:                                           ; preds = %entry
  store ptr @.str.15, ptr %sig, align 8
  %4 = load ptr, ptr %info.addr, align 8
  %si_code4 = getelementptr inbounds %struct.siginfo_t, ptr %4, i32 0, i32 2
  %5 = load i32, ptr %si_code4, align 8
  switch i32 %5, label %sw.epilog7 [
    i32 1, label %sw.bb5
    i32 2, label %sw.bb6
  ]

sw.bb5:                                           ; preds = %sw.bb3
  store ptr @.str.16, ptr %code, align 8
  br label %sw.epilog7

sw.bb6:                                           ; preds = %sw.bb3
  store ptr @.str.17, ptr %code, align 8
  br label %sw.epilog7

sw.epilog7:                                       ; preds = %sw.bb6, %sw.bb5, %sw.bb3
  br label %sw.epilog25

sw.bb8:                                           ; preds = %entry
  store ptr @.str.18, ptr %sig, align 8
  %6 = load ptr, ptr %info.addr, align 8
  %si_code9 = getelementptr inbounds %struct.siginfo_t, ptr %6, i32 0, i32 2
  %7 = load i32, ptr %si_code9, align 8
  switch i32 %7, label %sw.epilog16 [
    i32 1, label %sw.bb10
    i32 2, label %sw.bb11
    i32 3, label %sw.bb12
    i32 5, label %sw.bb13
    i32 6, label %sw.bb14
    i32 7, label %sw.bb15
  ]

sw.bb10:                                          ; preds = %sw.bb8
  store ptr @.str.19, ptr %code, align 8
  br label %sw.epilog16

sw.bb11:                                          ; preds = %sw.bb8
  store ptr @.str.20, ptr %code, align 8
  br label %sw.epilog16

sw.bb12:                                          ; preds = %sw.bb8
  store ptr @.str.21, ptr %code, align 8
  br label %sw.epilog16

sw.bb13:                                          ; preds = %sw.bb8
  store ptr @.str.22, ptr %code, align 8
  br label %sw.epilog16

sw.bb14:                                          ; preds = %sw.bb8
  store ptr @.str.23, ptr %code, align 8
  br label %sw.epilog16

sw.bb15:                                          ; preds = %sw.bb8
  store ptr @.str.24, ptr %code, align 8
  br label %sw.epilog16

sw.epilog16:                                      ; preds = %sw.bb15, %sw.bb14, %sw.bb13, %sw.bb12, %sw.bb11, %sw.bb10, %sw.bb8
  br label %sw.epilog25

sw.bb17:                                          ; preds = %entry
  store ptr @.str.25, ptr %sig, align 8
  %8 = load ptr, ptr %info.addr, align 8
  %si_code18 = getelementptr inbounds %struct.siginfo_t, ptr %8, i32 0, i32 2
  %9 = load i32, ptr %si_code18, align 8
  switch i32 %9, label %sw.epilog21 [
    i32 1, label %sw.bb19
    i32 2, label %sw.bb20
  ]

sw.bb19:                                          ; preds = %sw.bb17
  store ptr @.str.26, ptr %code, align 8
  br label %sw.epilog21

sw.bb20:                                          ; preds = %sw.bb17
  store ptr @.str.27, ptr %code, align 8
  br label %sw.epilog21

sw.epilog21:                                      ; preds = %sw.bb20, %sw.bb19, %sw.bb17
  br label %sw.epilog25

sw.bb22:                                          ; preds = %entry
  store ptr @.str.28, ptr %sig, align 8
  br label %sw.epilog25

sw.default:                                       ; preds = %entry
  %arraydecay = getelementptr inbounds [4 x i8], ptr %sigbuf, i64 0, i64 0
  %10 = load ptr, ptr %info.addr, align 8
  %si_signo23 = getelementptr inbounds %struct.siginfo_t, ptr %10, i32 0, i32 0
  %11 = load i32, ptr %si_signo23, align 8
  %call = call i32 (ptr, i64, ptr, ...) @snprintf(ptr noundef %arraydecay, i64 noundef 4, ptr noundef @.str.29, i32 noundef %11) #9
  %arraydecay24 = getelementptr inbounds [4 x i8], ptr %sigbuf, i64 0, i64 0
  store ptr %arraydecay24, ptr %sig, align 8
  br label %sw.epilog25

sw.epilog25:                                      ; preds = %sw.default, %sw.bb22, %sw.epilog21, %sw.epilog16, %sw.epilog7, %sw.epilog
  %12 = load ptr, ptr %code, align 8
  %cmp = icmp eq ptr %12, null
  br i1 %cmp, label %if.then, label %if.end

if.then:                                          ; preds = %sw.epilog25
  %arraydecay26 = getelementptr inbounds [12 x i8], ptr %codebuf, i64 0, i64 0
  %13 = load ptr, ptr %info.addr, align 8
  %si_code27 = getelementptr inbounds %struct.siginfo_t, ptr %13, i32 0, i32 2
  %14 = load i32, ptr %si_code27, align 8
  %call28 = call i32 (ptr, i64, ptr, ...) @snprintf(ptr noundef %arraydecay26, i64 noundef 4, ptr noundef @.str.29, i32 noundef %14) #9
  %arraydecay29 = getelementptr inbounds [12 x i8], ptr %codebuf, i64 0, i64 0
  store ptr %arraydecay29, ptr %code, align 8
  br label %if.end

if.end:                                           ; preds = %if.then, %sw.epilog25
  %15 = load ptr, ptr %sig, align 8
  %16 = load ptr, ptr %code, align 8
  %17 = load ptr, ptr %info.addr, align 8
  %_sifields = getelementptr inbounds %struct.siginfo_t, ptr %17, i32 0, i32 4
  %si_addr = getelementptr inbounds %struct.anon.18, ptr %_sifields, i32 0, i32 0
  %18 = load ptr, ptr %si_addr, align 8
  call void (ptr, ...) @error_report(ptr noundef @.str.30, ptr noundef %15, ptr noundef %16, ptr noundef %18)
  %19 = load ptr, ptr %info.addr, align 8
  %si_signo30 = getelementptr inbounds %struct.siginfo_t, ptr %19, i32 0, i32 0
  %20 = load i32, ptr %si_signo30, align 8
  call void @die_with_signal(i32 noundef %20) #10
  unreachable
}