; Function Attrs: noreturn nounwind sspstrong uwtable
define internal fastcc void @die_from_signal(ptr noundef readonly captures(none) %info) unnamed_addr #11 {
entry:
  %sigbuf = alloca [4 x i8], align 1
  %codebuf = alloca [12 x i8], align 1
  %0 = load i32, ptr %info, align 8
  switch i32 %0, label %sw.default [
    i32 11, label %sw.bb
    i32 7, label %sw.bb3
    i32 4, label %sw.bb8
    i32 8, label %sw.bb17
    i32 5, label %if.then
  ]

sw.bb:                                            ; preds = %entry
  %si_code = getelementptr inbounds nuw i8, ptr %info, i64 8
  %1 = load i32, ptr %si_code, align 8
  switch i32 %1, label %if.then [
    i32 1, label %if.end
    i32 2, label %sw.bb2
  ]

sw.bb2:                                           ; preds = %sw.bb
  br label %if.end

sw.bb3:                                           ; preds = %entry
  %si_code4 = getelementptr inbounds nuw i8, ptr %info, i64 8
  %2 = load i32, ptr %si_code4, align 8
  switch i32 %2, label %if.then [
    i32 1, label %if.end
    i32 2, label %sw.bb6
  ]

sw.bb6:                                           ; preds = %sw.bb3
  br label %if.end

sw.bb8:                                           ; preds = %entry
  %si_code9 = getelementptr inbounds nuw i8, ptr %info, i64 8
  %3 = load i32, ptr %si_code9, align 8
  %switch.tableidx = add i32 %3, -1
  %4 = icmp ult i32 %switch.tableidx, 7
  br i1 %4, label %switch.hole_check, label %if.then

sw.bb17:                                          ; preds = %entry
  %si_code18 = getelementptr inbounds nuw i8, ptr %info, i64 8
  %5 = load i32, ptr %si_code18, align 8
  switch i32 %5, label %if.then [
    i32 1, label %if.end
    i32 2, label %sw.bb20
  ]

sw.bb20:                                          ; preds = %sw.bb17
  br label %if.end

sw.default:                                       ; preds = %entry
  %call = call i32 (ptr, i64, ptr, ...) @snprintf(ptr noundef nonnull dereferenceable(1) %sigbuf, i64 noundef 4, ptr noundef nonnull @.str.29, i32 noundef %0) #16
  br label %if.then

if.then:                                          ; preds = %switch.hole_check, %sw.bb8, %sw.default, %sw.bb, %sw.bb3, %sw.bb17, %entry
  %sig.0 = phi ptr [ %sigbuf, %sw.default ], [ @.str.25, %sw.bb17 ], [ @.str.18, %sw.bb8 ], [ @.str.15, %sw.bb3 ], [ @.str.12, %sw.bb ], [ @.str.28, %entry ], [ @.str.18, %switch.hole_check ]
  %si_code27 = getelementptr inbounds nuw i8, ptr %info, i64 8
  %6 = load i32, ptr %si_code27, align 8
  %call28 = call i32 (ptr, i64, ptr, ...) @snprintf(ptr noundef nonnull dereferenceable(1) %codebuf, i64 noundef 4, ptr noundef nonnull @.str.29, i32 noundef %6) #16
  br label %if.end

switch.hole_check:                                ; preds = %sw.bb8
  %switch.maskindex = trunc nuw i32 %switch.tableidx to i8
  %switch.shifted = lshr i8 119, %switch.maskindex
  %switch.lobit = trunc i8 %switch.shifted to i1
  br i1 %switch.lobit, label %switch.lookup, label %if.then

switch.lookup:                                    ; preds = %switch.hole_check
  %7 = zext nneg i32 %switch.tableidx to i64
  %switch.gep = getelementptr inbounds nuw [7 x ptr], ptr @switch.table.die_from_signal, i64 0, i64 %7
  %switch.load = load ptr, ptr %switch.gep, align 8
  br label %if.end

if.end:                                           ; preds = %switch.lookup, %sw.bb17, %sw.bb3, %sw.bb, %sw.bb2, %sw.bb6, %sw.bb20, %if.then
  %sig.013 = phi ptr [ %sig.0, %if.then ], [ @.str.12, %sw.bb2 ], [ @.str.15, %sw.bb6 ], [ @.str.25, %sw.bb20 ], [ @.str.12, %sw.bb ], [ @.str.15, %sw.bb3 ], [ @.str.25, %sw.bb17 ], [ @.str.18, %switch.lookup ]
  %code.1 = phi ptr [ %codebuf, %if.then ], [ @.str.14, %sw.bb2 ], [ @.str.17, %sw.bb6 ], [ @.str.27, %sw.bb20 ], [ @.str.13, %sw.bb ], [ @.str.16, %sw.bb3 ], [ @.str.26, %sw.bb17 ], [ %switch.load, %switch.lookup ]
  %_sifields = getelementptr inbounds nuw i8, ptr %info, i64 16
  %8 = load ptr, ptr %_sifields, align 8
  call void (ptr, ...) @error_report(ptr noundef nonnull @.str.30, ptr noundef nonnull %sig.013, ptr noundef nonnull %code.1, ptr noundef %8) #16
  %9 = load i32, ptr %info, align 8
  call fastcc void @die_with_signal(i32 noundef %9) #18
  unreachable
}